target datalayout = "e-m:e-p270:32:32-p271:32:32-p272:64:64-i64:64-i128:128-f80:128-n8:16:32:64-S128"
target triple = "x86_64-pc-linux-gnu"

%struct.AVFilterPad = type { ptr, i32, i32, %union.anon, ptr, ptr, ptr }
%union.anon = type { ptr }
%struct.AVFilterLink = type { ptr, ptr, ptr, ptr, i32, i32, i32, i32, %struct.AVRational, i32, i32, i32, %struct.AVChannelLayout, %struct.AVRational, ptr, i32, %struct.AVFilterFormatsConfig, %struct.AVFilterFormatsConfig }
%struct.AVChannelLayout = type { i32, i32, %union.anon.0, ptr }
%union.anon.0 = type { i64 }
%struct.AVRational = type { i32, i32 }
%struct.AVFilterFormatsConfig = type { ptr, ptr, ptr, ptr, ptr }

; Function Attrs: nounwind uwtable
define ptr @ff_default_get_video_buffer(ptr noundef %0, i32 noundef %1, i32 noundef %2) #0 {
  %4 = alloca ptr, align 8
  %5 = alloca i32, align 4
  %6 = alloca i32, align 4
  store ptr %0, ptr %4, align 8, !tbaa !4
  store i32 %1, ptr %5, align 4, !tbaa !9
  store i32 %2, ptr %6, align 4, !tbaa !9
  %7 = load ptr, ptr %4, align 8, !tbaa !4
  %8 = load i32, ptr %5, align 4, !tbaa !9
  %9 = load i32, ptr %6, align 4, !tbaa !9
  %10 = call i64 @av_cpu_max_align()
  %11 = trunc i64 %10 to i32
  %12 = call ptr @ff_default_get_video_buffer2(ptr noundef %7, i32 noundef %8, i32 noundef %9, i32 noundef %11)
  ret ptr %12
}

; Function Attrs: nounwind uwtable
define ptr @ff_get_video_buffer(ptr noundef %0, i32 noundef %1, i32 noundef %2) #0 {
  %4 = alloca ptr, align 8
  %5 = alloca i32, align 4
  %6 = alloca i32, align 4
  %7 = alloca ptr, align 8
  store ptr %0, ptr %4, align 8, !tbaa !4
  store i32 %1, ptr %5, align 4, !tbaa !9
  store i32 %2, ptr %6, align 4, !tbaa !9
  call void @llvm.lifetime.start.p0(i64 8, ptr %7) #5
  store ptr null, ptr %7, align 8, !tbaa !32
  br label %8

8:                                                ; preds = %3
  br label %9

9:                                                ; preds = %8
  br label %10

10:                                               ; preds = %9
  br label %11

11:                                               ; preds = %10
  br label %12

12:                                               ; preds = %11
  br label %13

13:                                               ; preds = %12
  %14 = load ptr, ptr %4, align 8, !tbaa !4
  %15 = getelementptr inbounds nuw %struct.AVFilterLink, ptr %14, i32 0, i32 3
  %16 = load ptr, ptr %15, align 8, !tbaa !34
  %17 = getelementptr inbounds nuw %struct.AVFilterPad, ptr %16, i32 0, i32 3
  %18 = load ptr, ptr %17, align 8, !tbaa !35
  %19 = icmp ne ptr %18, null
  br i1 %19, label %20, label %30

20:                                               ; preds = %13
  %21 = load ptr, ptr %4, align 8, !tbaa !4
  %22 = getelementptr inbounds nuw %struct.AVFilterLink, ptr %21, i32 0, i32 3
  %23 = load ptr, ptr %22, align 8, !tbaa !34
  %24 = getelementptr inbounds nuw %struct.AVFilterPad, ptr %23, i32 0, i32 3
  %25 = load ptr, ptr %24, align 8, !tbaa !35
  %26 = load ptr, ptr %4, align 8, !tbaa !4
  %27 = load i32, ptr %5, align 4, !tbaa !9
  %28 = load i32, ptr %6, align 4, !tbaa !9
  %29 = call ptr %25(ptr noundef %26, i32 noundef %27, i32 noundef %28)
  store ptr %29, ptr %7, align 8, !tbaa !32
  br label %30

30:                                               ; preds = %20, %13
  %31 = load ptr, ptr %7, align 8, !tbaa !32
  %32 = icmp ne ptr %31, null
  br i1 %32, label %38, label %33

33:                                               ; preds = %30
  %34 = load ptr, ptr %4, align 8, !tbaa !4
  %35 = load i32, ptr %5, align 4, !tbaa !9
  %36 = load i32, ptr %6, align 4, !tbaa !9
  %37 = call ptr @ff_default_get_video_buffer(ptr noundef %34, i32 noundef %35, i32 noundef %36)
  store ptr %37, ptr %7, align 8, !tbaa !32
  br label %38

38:                                               ; preds = %33, %30
  %39 = load ptr, ptr %7, align 8, !tbaa !32
  call void @llvm.lifetime.end.p0(i64 8, ptr %7) #5
  ret ptr %39
}