; Function Attrs: nounwind uwtable
define ptr @ff_get_video_buffer(ptr noundef %0, i32 noundef %1, i32 noundef %2) local_unnamed_addr #0 {
  %4 = getelementptr inbounds nuw i8, ptr %0, i64 24
  %5 = load ptr, ptr %4, align 8, !tbaa !31
  %6 = getelementptr inbounds nuw i8, ptr %5, i64 16
  %7 = load ptr, ptr %6, align 8, !tbaa !32
  %.not = icmp eq ptr %7, null
  br i1 %.not, label %.thread, label %8

8:                                                ; preds = %3
  %9 = tail call ptr %7(ptr noundef nonnull %0, i32 noundef %1, i32 noundef %2) #3
  %.not10 = icmp eq ptr %9, null
  br i1 %.not10, label %.thread, label %13

.thread:                                          ; preds = %3, %8
  %10 = tail call i64 @av_cpu_max_align() #3
  %11 = trunc i64 %10 to i32
  %12 = tail call ptr @ff_default_get_video_buffer2(ptr noundef nonnull %0, i32 noundef %1, i32 noundef %2, i32 noundef %11)
  br label %13

13:                                               ; preds = %.thread, %8
  %.1 = phi ptr [ %9, %8 ], [ %12, %.thread ]
  ret ptr %.1
}